(dp1
S'epubreader'
p2
(dp3
S'startup'
p4
(lp5
(S'extensions.epubreader.version'
S'1.4.2.4'
tp6
asS'filename'
p7
S'epubreader-1.4.2.4.xpi'
p8
ssS'evernote'
p9
(dp10
g4
(lp11
(S'extensions.evernote.webclipper3.is_first_start'
I00
tp12
a(S'extensions.evernote.webclipper3.is_start_page_showed'
I01
tp13
asg7
S'evernote_web_clipper-5.9.1.xpi'
p14
ssS'RES'
p15
(dp16
g4
(lp17
sg7
S'reddit_enhancement_suite-4.3.1.2.xpi'
p18
ssS'youtube_downloader'
p19
(dp20
g4
(lp21
sg7
S'download_youtube_videos_as_mp4-1.7.18.xpi'
p22
ssS'amazon_wish_list'
p23
(dp24
g4
(lp25
(S'extensions.amznuwl2.installedVersion'
S'1.10'
tp26
asg7
S'amazon_add_to_wish_list_button-1.10.xpi'
p27
ssS'flagfox'
p28
(dp29
g4
(lp30
(S'extensions.flagfox.lastwhatsnewpage'
S'5.0.2'
tp31
asg7
S'flagfox-5.0.2.xpi'
p32
ssS'greasemonkey'
p33
(dp34
g4
(lp35
(S'extensions.greasemonkey.stats.prompted'
I01
tp36
a(S'extensions.greasemonkey.version'
S'1.15'
tp37
asg7
S'greasemonkey-1.15.xpi'
p38
ssS'firebug'
p39
(dp40
g4
(lp41
(S'extensions.firebug.currentVersion'
S'1.11.0'
tp42
asg7
S'firebug-1.11.0.xpi'
p43
ss.